target datalayout = "e-m:e-p270:32:32-p271:32:32-p272:64:64-i64:64-i128:128-f80:128-n8:16:32:64-S128"
target triple = "x86_64-pc-linux-gnu"

%"class.cv::videostab::IMotionStabilizer" = type { ptr }
%"class.cv::videostab::GaussianMotionFilter" = type { %"class.cv::videostab::MotionFilterBase", i32, float, %"class.std::vector.5" }
%"class.cv::videostab::MotionFilterBase" = type { %"class.cv::videostab::IMotionStabilizer" }
%"class.std::vector.5" = type { %"struct.std::_Vector_base.6" }
%"struct.std::_Vector_base.6" = type { %"struct.std::_Vector_base<float, std::allocator<float>>::_Vector_impl" }
%"struct.std::_Vector_base<float, std::allocator<float>>::_Vector_impl" = type { %"struct.std::_Vector_base<float, std::allocator<float>>::_Vector_impl_data" }
%"struct.std::_Vector_base<float, std::allocator<float>>::_Vector_impl_data" = type { ptr, ptr, ptr }

; Function Attrs: mustprogress nounwind uwtable
define linkonce_odr hidden void @_ZNSt12_Destroy_auxILb1EE9__destroyIPfEEvT_S3_(ptr noundef %0, ptr noundef %1) #5 comdat align 2 {
  %3 = alloca ptr, align 8
  %4 = alloca ptr, align 8
  store ptr %0, ptr %3, align 8
  store ptr %1, ptr %4, align 8
  ret void
}

; Function Attrs: mustprogress uwtable
define linkonce_odr void @_ZSt8_DestroyIPfEvT_S1_(ptr noundef %0, ptr noundef %1) #4 comdat {
  %3 = alloca ptr, align 8
  %4 = alloca ptr, align 8
  store ptr %0, ptr %3, align 8
  store ptr %1, ptr %4, align 8
  %5 = load ptr, ptr %3, align 8
  %6 = load ptr, ptr %4, align 8
  call void @_ZNSt12_Destroy_auxILb1EE9__destroyIPfEEvT_S3_(ptr noundef %5, ptr noundef %6)
  ret void
}

; Function Attrs: noreturn nounwind uwtable
define linkonce_odr hidden void @__clang_call_terminate(ptr noundef %0) #11 comdat {
  %2 = call ptr @__cxa_begin_catch(ptr %0) #3
  call void @_ZSt9terminatev() #14
  unreachable
}

; Function Attrs: mustprogress uwtable
define linkonce_odr void @_ZSt8_DestroyIPffEvT_S1_RSaIT0_E(ptr noundef %0, ptr noundef %1, ptr noundef nonnull align 1 dereferenceable(1) %2) #4 comdat {
  %4 = alloca ptr, align 8
  %5 = alloca ptr, align 8
  %6 = alloca ptr, align 8
  store ptr %0, ptr %4, align 8
  store ptr %1, ptr %5, align 8
  store ptr %2, ptr %6, align 8
  %7 = load ptr, ptr %4, align 8
  %8 = load ptr, ptr %5, align 8
  call void @_ZSt8_DestroyIPfEvT_S1_(ptr noundef %7, ptr noundef %8)
  ret void
}

; Function Attrs: mustprogress nounwind uwtable
define linkonce_odr hidden noundef nonnull align 1 dereferenceable(1) ptr @_ZNSt12_Vector_baseIfSaIfEE19_M_get_Tp_allocatorEv(ptr noundef nonnull align 8 dereferenceable(24) %0) #5 comdat align 2 {
  %2 = alloca ptr, align 8
  store ptr %0, ptr %2, align 8
  %3 = load ptr, ptr %2, align 8
  %4 = getelementptr inbounds %"struct.std::_Vector_base.6", ptr %3, i32 0, i32 0
  ret ptr %4
}

; Function Attrs: mustprogress nounwind uwtable
define linkonce_odr hidden void @_ZNSt6vectorIfSaIfEE15_M_erase_at_endEPf(ptr noundef nonnull align 8 dereferenceable(24) %0, ptr noundef %1) #5 comdat align 2 personality ptr @__gxx_personality_v0 {
  %3 = alloca ptr, align 8
  %4 = alloca ptr, align 8
  %5 = alloca i64, align 8
  store ptr %0, ptr %3, align 8
  store ptr %1, ptr %4, align 8
  %6 = load ptr, ptr %3, align 8
  %7 = getelementptr inbounds %"struct.std::_Vector_base.6", ptr %6, i32 0, i32 0
  %8 = getelementptr inbounds %"struct.std::_Vector_base<float, std::allocator<float>>::_Vector_impl_data", ptr %7, i32 0, i32 1
  %9 = load ptr, ptr %8, align 8
  %10 = load ptr, ptr %4, align 8
  %11 = ptrtoint ptr %9 to i64
  %12 = ptrtoint ptr %10 to i64
  %13 = sub i64 %11, %12
  %14 = sdiv exact i64 %13, 4
  store i64 %14, ptr %5, align 8
  %15 = load i64, ptr %5, align 8
  %16 = icmp ne i64 %15, 0
  br i1 %16, label %17, label %27

17:                                               ; preds = %2
  %18 = load ptr, ptr %4, align 8
  %19 = getelementptr inbounds %"struct.std::_Vector_base.6", ptr %6, i32 0, i32 0
  %20 = getelementptr inbounds %"struct.std::_Vector_base<float, std::allocator<float>>::_Vector_impl_data", ptr %19, i32 0, i32 1
  %21 = load ptr, ptr %20, align 8
  %22 = call noundef nonnull align 1 dereferenceable(1) ptr @_ZNSt12_Vector_baseIfSaIfEE19_M_get_Tp_allocatorEv(ptr noundef nonnull align 8 dereferenceable(24) %6) #3
  invoke void @_ZSt8_DestroyIPffEvT_S1_RSaIT0_E(ptr noundef %18, ptr noundef %21, ptr noundef nonnull align 1 dereferenceable(1) %22)
          to label %23 unwind label %28

23:                                               ; preds = %17
  %24 = load ptr, ptr %4, align 8
  %25 = getelementptr inbounds %"struct.std::_Vector_base.6", ptr %6, i32 0, i32 0
  %26 = getelementptr inbounds %"struct.std::_Vector_base<float, std::allocator<float>>::_Vector_impl_data", ptr %25, i32 0, i32 1
  store ptr %24, ptr %26, align 8
  br label %27

27:                                               ; preds = %23, %2
  ret void

28:                                               ; preds = %17
  %29 = landingpad { ptr, i32 }
          catch ptr null
  %30 = extractvalue { ptr, i32 } %29, 0
  call void @__clang_call_terminate(ptr %30) #14
  unreachable
}

; Function Attrs: mustprogress nounwind uwtable
define linkonce_odr hidden noundef i64 @_ZNKSt6vectorIfSaIfEE4sizeEv(ptr noundef nonnull align 8 dereferenceable(24) %0) #5 comdat align 2 {
  %2 = alloca ptr, align 8
  store ptr %0, ptr %2, align 8
  %3 = load ptr, ptr %2, align 8
  %4 = getelementptr inbounds %"struct.std::_Vector_base.6", ptr %3, i32 0, i32 0
  %5 = getelementptr inbounds %"struct.std::_Vector_base<float, std::allocator<float>>::_Vector_impl_data", ptr %4, i32 0, i32 1
  %6 = load ptr, ptr %5, align 8
  %7 = getelementptr inbounds %"struct.std::_Vector_base.6", ptr %3, i32 0, i32 0
  %8 = getelementptr inbounds %"struct.std::_Vector_base<float, std::allocator<float>>::_Vector_impl_data", ptr %7, i32 0, i32 0
  %9 = load ptr, ptr %8, align 8
  %10 = ptrtoint ptr %6 to i64
  %11 = ptrtoint ptr %9 to i64
  %12 = sub i64 %10, %11
  %13 = sdiv exact i64 %12, 4
  ret i64 %13
}

; Function Attrs: mustprogress nounwind uwtable
define linkonce_odr hidden noundef nonnull align 4 dereferenceable(4) ptr @_ZNSt6vectorIfSaIfEEixEm(ptr noundef nonnull align 8 dereferenceable(24) %0, i64 noundef %1) #5 comdat align 2 {
  %3 = alloca ptr, align 8
  %4 = alloca i64, align 8
  store ptr %0, ptr %3, align 8
  store i64 %1, ptr %4, align 8
  %5 = load ptr, ptr %3, align 8
  %6 = getelementptr inbounds %"struct.std::_Vector_base.6", ptr %5, i32 0, i32 0
  %7 = getelementptr inbounds %"struct.std::_Vector_base<float, std::allocator<float>>::_Vector_impl_data", ptr %6, i32 0, i32 0
  %8 = load ptr, ptr %7, align 8
  %9 = load i64, ptr %4, align 8
  %10 = getelementptr inbounds float, ptr %8, i64 %9
  ret ptr %10
}

; Function Attrs: mustprogress nounwind uwtable
define linkonce_odr noundef float @_ZSt3expf(float noundef %0) #5 comdat {
  %2 = alloca float, align 4
  store float %0, ptr %2, align 4
  %3 = load float, ptr %2, align 4
  %4 = call float @expf(float noundef %3) #3
  ret float %4
}

; Function Attrs: mustprogress uwtable
define linkonce_odr hidden void @_ZNSt6vectorIfSaIfEE6resizeEm(ptr noundef nonnull align 8 dereferenceable(24) %0, i64 noundef %1) #4 comdat align 2 {
  %3 = alloca ptr, align 8
  %4 = alloca i64, align 8
  store ptr %0, ptr %3, align 8
  store i64 %1, ptr %4, align 8
  %5 = load ptr, ptr %3, align 8
  %6 = load i64, ptr %4, align 8
  %7 = call noundef i64 @_ZNKSt6vectorIfSaIfEE4sizeEv(ptr noundef nonnull align 8 dereferenceable(24) %5) #3
  %8 = icmp ugt i64 %6, %7
  br i1 %8, label %9, label %13

9:                                                ; preds = %2
  %10 = load i64, ptr %4, align 8
  %11 = call noundef i64 @_ZNKSt6vectorIfSaIfEE4sizeEv(ptr noundef nonnull align 8 dereferenceable(24) %5) #3
  %12 = sub i64 %10, %11
  call void @_ZNSt6vectorIfSaIfEE17_M_default_appendEm(ptr noundef nonnull align 8 dereferenceable(24) %5, i64 noundef %12)
  br label %24

13:                                               ; preds = %2
  %14 = load i64, ptr %4, align 8
  %15 = call noundef i64 @_ZNKSt6vectorIfSaIfEE4sizeEv(ptr noundef nonnull align 8 dereferenceable(24) %5) #3
  %16 = icmp ult i64 %14, %15
  br i1 %16, label %17, label %23

17:                                               ; preds = %13
  %18 = getelementptr inbounds %"struct.std::_Vector_base.6", ptr %5, i32 0, i32 0
  %19 = getelementptr inbounds %"struct.std::_Vector_base<float, std::allocator<float>>::_Vector_impl_data", ptr %18, i32 0, i32 0
  %20 = load ptr, ptr %19, align 8
  %21 = load i64, ptr %4, align 8
  %22 = getelementptr inbounds float, ptr %20, i64 %21
  call void @_ZNSt6vectorIfSaIfEE15_M_erase_at_endEPf(ptr noundef nonnull align 8 dereferenceable(24) %5, ptr noundef %22) #3
  br label %23

23:                                               ; preds = %17, %13
  br label %24

24:                                               ; preds = %23, %9
  ret void
}

; Function Attrs: mustprogress nounwind uwtable
define linkonce_odr noundef float @_ZSt4sqrtf(float noundef %0) #5 comdat {
  %2 = alloca float, align 4
  store float %0, ptr %2, align 4
  %3 = load float, ptr %2, align 4
  %4 = call float @sqrtf(float noundef %3) #3
  ret float %4
}

; Function Attrs: mustprogress uwtable
define void @_ZN2cv9videostab20GaussianMotionFilter9setParamsEif(ptr noundef nonnull align 8 dereferenceable(40) %0, i32 noundef %1, float noundef %2) #4 align 2 {
  %4 = alloca ptr, align 8
  %5 = alloca i32, align 4
  %6 = alloca float, align 4
  %7 = alloca float, align 4
  %8 = alloca i32, align 4
  %9 = alloca i32, align 4
  store ptr %0, ptr %4, align 8
  store i32 %1, ptr %5, align 4
  store float %2, ptr %6, align 4
  %10 = load ptr, ptr %4, align 8
  %11 = load i32, ptr %5, align 4
  %12 = getelementptr inbounds %"class.cv::videostab::GaussianMotionFilter", ptr %10, i32 0, i32 1
  store i32 %11, ptr %12, align 8
  %13 = load float, ptr %6, align 4
  %14 = fcmp ogt float %13, 0.000000e+00
  br i1 %14, label %15, label %17

15:                                               ; preds = %3
  %16 = load float, ptr %6, align 4
  br label %21

17:                                               ; preds = %3
  %18 = load i32, ptr %5, align 4
  %19 = sitofp i32 %18 to float
  %20 = call noundef float @_ZSt4sqrtf(float noundef %19)
  br label %21

21:                                               ; preds = %17, %15
  %22 = phi float [ %16, %15 ], [ %20, %17 ]
  %23 = getelementptr inbounds %"class.cv::videostab::GaussianMotionFilter", ptr %10, i32 0, i32 2
  store float %22, ptr %23, align 4
  store float 0.000000e+00, ptr %7, align 4
  %24 = getelementptr inbounds %"class.cv::videostab::GaussianMotionFilter", ptr %10, i32 0, i32 3
  %25 = getelementptr inbounds %"class.cv::videostab::GaussianMotionFilter", ptr %10, i32 0, i32 1
  %26 = load i32, ptr %25, align 8
  %27 = mul nsw i32 2, %26
  %28 = add nsw i32 %27, 1
  %29 = sext i32 %28 to i64
  call void @_ZNSt6vectorIfSaIfEE6resizeEm(ptr noundef nonnull align 8 dereferenceable(24) %24, i64 noundef %29)
  %30 = getelementptr inbounds %"class.cv::videostab::GaussianMotionFilter", ptr %10, i32 0, i32 1
  %31 = load i32, ptr %30, align 8
  %32 = sub nsw i32 0, %31
  store i32 %32, ptr %8, align 4
  br label %33

33:                                               ; preds = %60, %21
  %34 = load i32, ptr %8, align 4
  %35 = getelementptr inbounds %"class.cv::videostab::GaussianMotionFilter", ptr %10, i32 0, i32 1
  %36 = load i32, ptr %35, align 8
  %37 = icmp sle i32 %34, %36
  br i1 %37, label %38, label %63

38:                                               ; preds = %33
  %39 = load i32, ptr %8, align 4
  %40 = sub nsw i32 0, %39
  %41 = load i32, ptr %8, align 4
  %42 = mul nsw i32 %40, %41
  %43 = sitofp i32 %42 to float
  %44 = getelementptr inbounds %"class.cv::videostab::GaussianMotionFilter", ptr %10, i32 0, i32 2
  %45 = load float, ptr %44, align 4
  %46 = getelementptr inbounds %"class.cv::videostab::GaussianMotionFilter", ptr %10, i32 0, i32 2
  %47 = load float, ptr %46, align 4
  %48 = fmul float %45, %47
  %49 = fdiv float %43, %48
  %50 = call noundef float @_ZSt3expf(float noundef %49)
  %51 = getelementptr inbounds %"class.cv::videostab::GaussianMotionFilter", ptr %10, i32 0, i32 3
  %52 = getelementptr inbounds %"class.cv::videostab::GaussianMotionFilter", ptr %10, i32 0, i32 1
  %53 = load i32, ptr %52, align 8
  %54 = load i32, ptr %8, align 4
  %55 = add nsw i32 %53, %54
  %56 = sext i32 %55 to i64
  %57 = call noundef nonnull align 4 dereferenceable(4) ptr @_ZNSt6vectorIfSaIfEEixEm(ptr noundef nonnull align 8 dereferenceable(24) %51, i64 noundef %56) #3
  store float %50, ptr %57, align 4
  %58 = load float, ptr %7, align 4
  %59 = fadd float %58, %50
  store float %59, ptr %7, align 4
  br label %60

60:                                               ; preds = %38
  %61 = load i32, ptr %8, align 4
  %62 = add nsw i32 %61, 1
  store i32 %62, ptr %8, align 4
  br label %33, !llvm.loop !11

63:                                               ; preds = %33
  %64 = getelementptr inbounds %"class.cv::videostab::GaussianMotionFilter", ptr %10, i32 0, i32 1
  %65 = load i32, ptr %64, align 8
  %66 = sub nsw i32 0, %65
  store i32 %66, ptr %9, align 4
  br label %67

67:                                               ; preds = %83, %63
  %68 = load i32, ptr %9, align 4
  %69 = getelementptr inbounds %"class.cv::videostab::GaussianMotionFilter", ptr %10, i32 0, i32 1
  %70 = load i32, ptr %69, align 8
  %71 = icmp sle i32 %68, %70
  br i1 %71, label %72, label %86

72:                                               ; preds = %67
  %73 = load float, ptr %7, align 4
  %74 = getelementptr inbounds %"class.cv::videostab::GaussianMotionFilter", ptr %10, i32 0, i32 3
  %75 = getelementptr inbounds %"class.cv::videostab::GaussianMotionFilter", ptr %10, i32 0, i32 1
  %76 = load i32, ptr %75, align 8
  %77 = load i32, ptr %9, align 4
  %78 = add nsw i32 %76, %77
  %79 = sext i32 %78 to i64
  %80 = call noundef nonnull align 4 dereferenceable(4) ptr @_ZNSt6vectorIfSaIfEEixEm(ptr noundef nonnull align 8 dereferenceable(24) %74, i64 noundef %79) #3
  %81 = load float, ptr %80, align 4
  %82 = fdiv float %81, %73
  store float %82, ptr %80, align 4
  br label %83

83:                                               ; preds = %72
  %84 = load i32, ptr %9, align 4
  %85 = add nsw i32 %84, 1
  store i32 %85, ptr %9, align 4
  br label %67, !llvm.loop !12

86:                                               ; preds = %67
  ret void
}