; Function Attrs: mustprogress uwtable
define void @_ZN2cv9videostab20GaussianMotionFilter9setParamsEif(ptr noundef nonnull align 8 dereferenceable(40) %0, i32 noundef %1, float noundef %2) local_unnamed_addr #3 align 2 personality ptr @__gxx_personality_v0 {
  %4 = getelementptr inbounds i8, ptr %0, i64 8
  store i32 %1, ptr %4, align 8
  %5 = fcmp ogt float %2, 0.000000e+00
  br i1 %5, label %9, label %6

6:                                                ; preds = %3
  %7 = sitofp i32 %1 to float
  %8 = tail call noundef float @sqrtf(float noundef %7) #23
  %.pre = load i32, ptr %4, align 8
  br label %9

9:                                                ; preds = %3, %6
  %10 = phi i32 [ %.pre, %6 ], [ %1, %3 ]
  %11 = phi float [ %8, %6 ], [ %2, %3 ]
  %12 = getelementptr inbounds i8, ptr %0, i64 12
  store float %11, ptr %12, align 4
  %13 = getelementptr inbounds i8, ptr %0, i64 16
  %14 = shl nsw i32 %10, 1
  %15 = or disjoint i32 %14, 1
  %16 = sext i32 %15 to i64
  %17 = getelementptr inbounds i8, ptr %0, i64 24
  %18 = load ptr, ptr %17, align 8
  %19 = load ptr, ptr %13, align 8
  %20 = ptrtoint ptr %18 to i64
  %21 = ptrtoint ptr %19 to i64
  %22 = sub i64 %20, %21
  %23 = ashr exact i64 %22, 2
  %24 = icmp ult i64 %23, %16
  br i1 %24, label %25, label %27

25:                                               ; preds = %9
  %26 = sub nsw i64 %16, %23
  tail call void @_ZNSt6vectorIfSaIfEE17_M_default_appendEm(ptr noundef nonnull align 8 dereferenceable(24) %13, i64 noundef %26)
  %.pre31 = load i32, ptr %4, align 8
  br label %_ZNSt6vectorIfSaIfEE6resizeEm.exit

27:                                               ; preds = %9
  %28 = icmp ugt i64 %23, %16
  br i1 %28, label %29, label %_ZNSt6vectorIfSaIfEE6resizeEm.exit

29:                                               ; preds = %27
  %30 = getelementptr inbounds float, ptr %19, i64 %16
  %.not.i.i = icmp eq ptr %18, %30
  br i1 %.not.i.i, label %_ZNSt6vectorIfSaIfEE6resizeEm.exit, label %31

31:                                               ; preds = %29
  store ptr %30, ptr %17, align 8
  br label %_ZNSt6vectorIfSaIfEE6resizeEm.exit

_ZNSt6vectorIfSaIfEE6resizeEm.exit:               ; preds = %25, %27, %29, %31
  %32 = phi i32 [ %.pre31, %25 ], [ %10, %27 ], [ %10, %29 ], [ %10, %31 ]
  %33 = sub nsw i32 0, %32
  %.not20 = icmp slt i32 %32, 0
  br i1 %.not20, label %._crit_edge, label %.lr.ph

.lr.ph:                                           ; preds = %_ZNSt6vectorIfSaIfEE6resizeEm.exit, %.lr.ph
  %.01422 = phi i32 [ %47, %.lr.ph ], [ %33, %_ZNSt6vectorIfSaIfEE6resizeEm.exit ]
  %.01521 = phi float [ %46, %.lr.ph ], [ 0.000000e+00, %_ZNSt6vectorIfSaIfEE6resizeEm.exit ]
  %34 = mul i32 %.01422, %.01422
  %35 = sub i32 0, %34
  %36 = sitofp i32 %35 to float
  %37 = load float, ptr %12, align 4
  %38 = fmul float %37, %37
  %39 = fdiv float %36, %38
  %40 = tail call noundef float @expf(float noundef %39) #23
  %41 = load i32, ptr %4, align 8
  %42 = add nsw i32 %41, %.01422
  %43 = sext i32 %42 to i64
  %44 = load ptr, ptr %13, align 8
  %45 = getelementptr inbounds float, ptr %44, i64 %43
  store float %40, ptr %45, align 4
  %46 = fadd float %.01521, %40
  %47 = add nsw i32 %.01422, 1
  %48 = load i32, ptr %4, align 8
  %.not.not = icmp slt i32 %.01422, %48
  br i1 %.not.not, label %.lr.ph, label %._crit_edge.loopexit, !llvm.loop !13

._crit_edge.loopexit:                             ; preds = %.lr.ph
  %.pre32 = sub nsw i32 0, %48
  br label %._crit_edge

._crit_edge:                                      ; preds = %._crit_edge.loopexit, %_ZNSt6vectorIfSaIfEE6resizeEm.exit
  %.pre-phi = phi i32 [ %.pre32, %._crit_edge.loopexit ], [ %33, %_ZNSt6vectorIfSaIfEE6resizeEm.exit ]
  %.015.lcssa = phi float [ %46, %._crit_edge.loopexit ], [ 0.000000e+00, %_ZNSt6vectorIfSaIfEE6resizeEm.exit ]
  %49 = phi i32 [ %48, %._crit_edge.loopexit ], [ %32, %_ZNSt6vectorIfSaIfEE6resizeEm.exit ]
  %.not1924 = icmp slt i32 %49, %.pre-phi
  br i1 %.not1924, label %._crit_edge28, label %.lr.ph27

.lr.ph27:                                         ; preds = %._crit_edge, %.lr.ph27
  %50 = phi i32 [ %58, %.lr.ph27 ], [ %49, %._crit_edge ]
  %.025 = phi i32 [ %57, %.lr.ph27 ], [ %.pre-phi, %._crit_edge ]
  %51 = add nsw i32 %50, %.025
  %52 = sext i32 %51 to i64
  %53 = load ptr, ptr %13, align 8
  %54 = getelementptr inbounds float, ptr %53, i64 %52
  %55 = load float, ptr %54, align 4
  %56 = fdiv float %55, %.015.lcssa
  store float %56, ptr %54, align 4
  %57 = add nsw i32 %.025, 1
  %58 = load i32, ptr %4, align 8
  %.not19.not = icmp slt i32 %.025, %58
  br i1 %.not19.not, label %.lr.ph27, label %._crit_edge28, !llvm.loop !14

._crit_edge28:                                    ; preds = %.lr.ph27, %._crit_edge
  ret void
}